target datalayout = "e-m:e-p270:32:32-p271:32:32-p272:64:64-i64:64-i128:128-f80:128-n8:16:32:64-S128"
target triple = "x86_64-pc-linux-gnu"

%struct.GetBitContext = type { ptr, ptr, i32, i32, i32 }
%struct.H265RawNALUnitHeader = type { i8, i8, i8 }
%struct.H265RawFiller = type { %struct.H265RawNALUnitHeader, i32 }

@.str.112 = private unnamed_addr constant [18 x i8] c"rbsp_stop_one_bit\00", align 1
@.str.113 = private unnamed_addr constant [24 x i8] c"rbsp_alignment_zero_bit\00", align 1
@.str.210 = private unnamed_addr constant [8 x i8] c"ff_byte\00", align 1
@.str.218 = private unnamed_addr constant [12 x i8] c"Filler Data\00", align 1

; Function Attrs: inlinehint nounwind uwtable
define internal i32 @get_bits_count(ptr noundef %0) #6 {
  %2 = alloca ptr, align 8
  store ptr %0, ptr %2, align 8, !tbaa !196
  %3 = load ptr, ptr %2, align 8, !tbaa !196
  %4 = getelementptr inbounds nuw %struct.GetBitContext, ptr %3, i32 0, i32 2
  %5 = load i32, ptr %4, align 8, !tbaa !202
  ret i32 %5
}

; Function Attrs: alwaysinline nounwind willreturn memory(none) uwtable
define internal i32 @av_bswap32(i32 noundef %0) #5 {
  %2 = alloca i32, align 4
  store i32 %0, ptr %2, align 4, !tbaa !11
  %3 = load i32, ptr %2, align 4, !tbaa !11
  %4 = shl i32 %3, 8
  %5 = and i32 %4, 65280
  %6 = load i32, ptr %2, align 4, !tbaa !11
  %7 = lshr i32 %6, 8
  %8 = and i32 %7, 255
  %9 = or i32 %5, %8
  %10 = shl i32 %9, 16
  %11 = load i32, ptr %2, align 4, !tbaa !11
  %12 = lshr i32 %11, 16
  %13 = shl i32 %12, 8
  %14 = and i32 %13, 65280
  %15 = load i32, ptr %2, align 4, !tbaa !11
  %16 = lshr i32 %15, 16
  %17 = lshr i32 %16, 8
  %18 = and i32 %17, 255
  %19 = or i32 %14, %18
  %20 = or i32 %10, %19
  ret i32 %20
}

; Function Attrs: nounwind uwtable
define internal i32 @cbs_h265_read_rbsp_trailing_bits(ptr noundef %0, ptr noundef %1) #0 {
  %3 = alloca i32, align 4
  %4 = alloca ptr, align 8
  %5 = alloca ptr, align 8
  %6 = alloca i32, align 4
  %7 = alloca i32, align 4
  %8 = alloca i32, align 4
  %9 = alloca i32, align 4
  %10 = alloca i32, align 4
  %11 = alloca i32, align 4
  store ptr %0, ptr %4, align 8, !tbaa !4
  store ptr %1, ptr %5, align 8, !tbaa !196
  call void @llvm.lifetime.start.p0(i64 4, ptr %6) #11
  br label %12

12:                                               ; preds = %2
  call void @llvm.lifetime.start.p0(i64 4, ptr %7) #11
  store i32 1, ptr %7, align 4, !tbaa !11
  br label %13

13:                                               ; preds = %12
  call void @llvm.lifetime.start.p0(i64 4, ptr %8) #11
  br label %14

14:                                               ; preds = %13
  %15 = load ptr, ptr %4, align 8, !tbaa !4
  %16 = load ptr, ptr %5, align 8, !tbaa !196
  %17 = call i32 @ff_cbs_read_unsigned(ptr noundef %15, ptr noundef %16, i32 noundef 1, ptr noundef @.str.112, ptr noundef null, ptr noundef %8, i32 noundef 1, i32 noundef 1)
  store i32 %17, ptr %6, align 4, !tbaa !11
  %18 = load i32, ptr %6, align 4, !tbaa !11
  %19 = icmp slt i32 %18, 0
  br i1 %19, label %20, label %22

20:                                               ; preds = %14
  %21 = load i32, ptr %6, align 4, !tbaa !11
  store i32 %21, ptr %3, align 4
  store i32 1, ptr %9, align 4
  br label %26

22:                                               ; preds = %14
  br label %23

23:                                               ; preds = %22
  br label %24

24:                                               ; preds = %23
  %25 = load i32, ptr %8, align 4, !tbaa !11
  store i32 %25, ptr %7, align 4, !tbaa !11
  store i32 0, ptr %9, align 4
  br label %26

26:                                               ; preds = %24, %20
  call void @llvm.lifetime.end.p0(i64 4, ptr %8) #11
  %27 = load i32, ptr %9, align 4
  switch i32 %27, label %31 [
    i32 0, label %28
  ]

28:                                               ; preds = %26
  br label %29

29:                                               ; preds = %28
  br label %30

30:                                               ; preds = %29
  store i32 0, ptr %9, align 4
  br label %31

31:                                               ; preds = %30, %26
  call void @llvm.lifetime.end.p0(i64 4, ptr %7) #11
  %32 = load i32, ptr %9, align 4
  switch i32 %32, label %67 [
    i32 0, label %33
  ]

33:                                               ; preds = %31
  br label %34

34:                                               ; preds = %33
  br label %35

35:                                               ; preds = %34
  br label %36

36:                                               ; preds = %65, %35
  %37 = load ptr, ptr %5, align 8, !tbaa !196
  %38 = call i32 @get_bits_count(ptr noundef %37)
  %39 = srem i32 %38, 8
  %40 = icmp ne i32 %39, 0
  br i1 %40, label %41, label %66

41:                                               ; preds = %36
  br label %42

42:                                               ; preds = %41
  call void @llvm.lifetime.start.p0(i64 4, ptr %10) #11
  store i32 0, ptr %10, align 4, !tbaa !11
  br label %43

43:                                               ; preds = %42
  call void @llvm.lifetime.start.p0(i64 4, ptr %11) #11
  br label %44

44:                                               ; preds = %43
  %45 = load ptr, ptr %4, align 8, !tbaa !4
  %46 = load ptr, ptr %5, align 8, !tbaa !196
  %47 = call i32 @ff_cbs_read_unsigned(ptr noundef %45, ptr noundef %46, i32 noundef 1, ptr noundef @.str.113, ptr noundef null, ptr noundef %11, i32 noundef 0, i32 noundef 0)
  store i32 %47, ptr %6, align 4, !tbaa !11
  %48 = load i32, ptr %6, align 4, !tbaa !11
  %49 = icmp slt i32 %48, 0
  br i1 %49, label %50, label %52

50:                                               ; preds = %44
  %51 = load i32, ptr %6, align 4, !tbaa !11
  store i32 %51, ptr %3, align 4
  store i32 1, ptr %9, align 4
  br label %56

52:                                               ; preds = %44
  br label %53

53:                                               ; preds = %52
  br label %54

54:                                               ; preds = %53
  %55 = load i32, ptr %11, align 4, !tbaa !11
  store i32 %55, ptr %10, align 4, !tbaa !11
  store i32 0, ptr %9, align 4
  br label %56

56:                                               ; preds = %54, %50
  call void @llvm.lifetime.end.p0(i64 4, ptr %11) #11
  %57 = load i32, ptr %9, align 4
  switch i32 %57, label %61 [
    i32 0, label %58
  ]

58:                                               ; preds = %56
  br label %59

59:                                               ; preds = %58
  br label %60

60:                                               ; preds = %59
  store i32 0, ptr %9, align 4
  br label %61

61:                                               ; preds = %60, %56
  call void @llvm.lifetime.end.p0(i64 4, ptr %10) #11
  %62 = load i32, ptr %9, align 4
  switch i32 %62, label %67 [
    i32 0, label %63
  ]

63:                                               ; preds = %61
  br label %64

64:                                               ; preds = %63
  br label %65

65:                                               ; preds = %64
  br label %36, !llvm.loop !712

66:                                               ; preds = %36
  store i32 0, ptr %3, align 4
  store i32 1, ptr %9, align 4
  br label %67

67:                                               ; preds = %66, %61, %31
  call void @llvm.lifetime.end.p0(i64 4, ptr %6) #11
  %68 = load i32, ptr %3, align 4
  ret i32 %68
}

; Function Attrs: inlinehint nounwind uwtable
define internal i32 @show_bits(ptr noundef %0, i32 noundef %1) #6 {
  %3 = alloca ptr, align 8
  %4 = alloca i32, align 4
  %5 = alloca i32, align 4
  %6 = alloca i32, align 4
  %7 = alloca i32, align 4
  store ptr %0, ptr %3, align 8, !tbaa !196
  store i32 %1, ptr %4, align 4, !tbaa !11
  call void @llvm.lifetime.start.p0(i64 4, ptr %5) #11
  call void @llvm.lifetime.start.p0(i64 4, ptr %6) #11
  %8 = load ptr, ptr %3, align 8, !tbaa !196
  %9 = getelementptr inbounds nuw %struct.GetBitContext, ptr %8, i32 0, i32 2
  %10 = load i32, ptr %9, align 8, !tbaa !202
  store i32 %10, ptr %6, align 4, !tbaa !11
  call void @llvm.lifetime.start.p0(i64 4, ptr %7) #11
  %11 = load ptr, ptr %3, align 8, !tbaa !196
  %12 = getelementptr inbounds nuw %struct.GetBitContext, ptr %11, i32 0, i32 0
  %13 = load ptr, ptr %12, align 8, !tbaa !198
  %14 = load i32, ptr %6, align 4, !tbaa !11
  %15 = lshr i32 %14, 3
  %16 = zext i32 %15 to i64
  %17 = getelementptr inbounds nuw i8, ptr %13, i64 %16
  %18 = load i32, ptr %17, align 1, !tbaa !32
  %19 = call i32 @av_bswap32(i32 noundef %18) #13
  %20 = load i32, ptr %6, align 4, !tbaa !11
  %21 = and i32 %20, 7
  %22 = shl i32 %19, %21
  %23 = lshr i32 %22, 0
  store i32 %23, ptr %7, align 4, !tbaa !11
  %24 = load i32, ptr %7, align 4, !tbaa !11
  %25 = load i32, ptr %4, align 4, !tbaa !11
  %26 = sub nsw i32 32, %25
  %27 = lshr i32 %24, %26
  store i32 %27, ptr %5, align 4, !tbaa !11
  %28 = load i32, ptr %5, align 4, !tbaa !11
  call void @llvm.lifetime.end.p0(i64 4, ptr %7) #11
  call void @llvm.lifetime.end.p0(i64 4, ptr %6) #11
  call void @llvm.lifetime.end.p0(i64 4, ptr %5) #11
  ret i32 %28
}

; Function Attrs: nounwind uwtable
define internal i32 @cbs_h265_read_filler(ptr noundef %0, ptr noundef %1, ptr noundef %2) #0 {
  %4 = alloca i32, align 4
  %5 = alloca ptr, align 8
  %6 = alloca ptr, align 8
  %7 = alloca ptr, align 8
  %8 = alloca i32, align 4
  %9 = alloca i32, align 4
  %10 = alloca i32, align 4
  %11 = alloca i32, align 4
  store ptr %0, ptr %5, align 8, !tbaa !4
  store ptr %1, ptr %6, align 8, !tbaa !196
  store ptr %2, ptr %7, align 8, !tbaa !653
  call void @llvm.lifetime.start.p0(i64 4, ptr %8) #11
  br label %12

12:                                               ; preds = %3
  %13 = load ptr, ptr %5, align 8, !tbaa !4
  call void @ff_cbs_trace_header(ptr noundef %13, ptr noundef @.str.218)
  br label %14

14:                                               ; preds = %12
  br label %15

15:                                               ; preds = %14
  br label %16

16:                                               ; preds = %15
  %17 = load ptr, ptr %5, align 8, !tbaa !4
  %18 = load ptr, ptr %6, align 8, !tbaa !196
  %19 = load ptr, ptr %7, align 8, !tbaa !653
  %20 = getelementptr inbounds nuw %struct.H265RawFiller, ptr %19, i32 0, i32 0
  %21 = call i32 @cbs_h265_read_nal_unit_header(ptr noundef %17, ptr noundef %18, ptr noundef %20, i32 noundef 38)
  store i32 %21, ptr %8, align 4, !tbaa !11
  %22 = load i32, ptr %8, align 4, !tbaa !11
  %23 = icmp slt i32 %22, 0
  br i1 %23, label %24, label %26

24:                                               ; preds = %16
  %25 = load i32, ptr %8, align 4, !tbaa !11
  store i32 %25, ptr %4, align 4
  store i32 1, ptr %9, align 4
  br label %74

26:                                               ; preds = %16
  br label %27

27:                                               ; preds = %26
  br label %28

28:                                               ; preds = %27
  br label %29

29:                                               ; preds = %57, %28
  %30 = load ptr, ptr %6, align 8, !tbaa !196
  %31 = call i32 @show_bits(ptr noundef %30, i32 noundef 8)
  %32 = icmp eq i32 %31, 255
  br i1 %32, label %33, label %62

33:                                               ; preds = %29
  br label %34

34:                                               ; preds = %33
  call void @llvm.lifetime.start.p0(i64 4, ptr %10) #11
  store i32 255, ptr %10, align 4, !tbaa !11
  br label %35

35:                                               ; preds = %34
  call void @llvm.lifetime.start.p0(i64 4, ptr %11) #11
  br label %36

36:                                               ; preds = %35
  %37 = load ptr, ptr %5, align 8, !tbaa !4
  %38 = load ptr, ptr %6, align 8, !tbaa !196
  %39 = call i32 @ff_cbs_read_unsigned(ptr noundef %37, ptr noundef %38, i32 noundef 8, ptr noundef @.str.210, ptr noundef null, ptr noundef %11, i32 noundef 255, i32 noundef 255)
  store i32 %39, ptr %8, align 4, !tbaa !11
  %40 = load i32, ptr %8, align 4, !tbaa !11
  %41 = icmp slt i32 %40, 0
  br i1 %41, label %42, label %44

42:                                               ; preds = %36
  %43 = load i32, ptr %8, align 4, !tbaa !11
  store i32 %43, ptr %4, align 4
  store i32 1, ptr %9, align 4
  br label %48

44:                                               ; preds = %36
  br label %45

45:                                               ; preds = %44
  br label %46

46:                                               ; preds = %45
  %47 = load i32, ptr %11, align 4, !tbaa !11
  store i32 %47, ptr %10, align 4, !tbaa !11
  store i32 0, ptr %9, align 4
  br label %48

48:                                               ; preds = %46, %42
  call void @llvm.lifetime.end.p0(i64 4, ptr %11) #11
  %49 = load i32, ptr %9, align 4
  switch i32 %49, label %53 [
    i32 0, label %50
  ]

50:                                               ; preds = %48
  br label %51

51:                                               ; preds = %50
  br label %52

52:                                               ; preds = %51
  store i32 0, ptr %9, align 4
  br label %53

53:                                               ; preds = %52, %48
  call void @llvm.lifetime.end.p0(i64 4, ptr %10) #11
  %54 = load i32, ptr %9, align 4
  switch i32 %54, label %74 [
    i32 0, label %55
  ]

55:                                               ; preds = %53
  br label %56

56:                                               ; preds = %55
  br label %57

57:                                               ; preds = %56
  %58 = load ptr, ptr %7, align 8, !tbaa !653
  %59 = getelementptr inbounds nuw %struct.H265RawFiller, ptr %58, i32 0, i32 1
  %60 = load i32, ptr %59, align 4, !tbaa !655
  %61 = add i32 %60, 1
  store i32 %61, ptr %59, align 4, !tbaa !655
  br label %29, !llvm.loop !657

62:                                               ; preds = %29
  br label %63

63:                                               ; preds = %62
  %64 = load ptr, ptr %5, align 8, !tbaa !4
  %65 = load ptr, ptr %6, align 8, !tbaa !196
  %66 = call i32 @cbs_h265_read_rbsp_trailing_bits(ptr noundef %64, ptr noundef %65)
  store i32 %66, ptr %8, align 4, !tbaa !11
  %67 = load i32, ptr %8, align 4, !tbaa !11
  %68 = icmp slt i32 %67, 0
  br i1 %68, label %69, label %71

69:                                               ; preds = %63
  %70 = load i32, ptr %8, align 4, !tbaa !11
  store i32 %70, ptr %4, align 4
  store i32 1, ptr %9, align 4
  br label %74

71:                                               ; preds = %63
  br label %72

72:                                               ; preds = %71
  br label %73

73:                                               ; preds = %72
  store i32 0, ptr %4, align 4
  store i32 1, ptr %9, align 4
  br label %74

74:                                               ; preds = %73, %69, %53, %24
  call void @llvm.lifetime.end.p0(i64 4, ptr %8) #11
  %75 = load i32, ptr %4, align 4
  ret i32 %75
}