; Function Attrs: nounwind uwtable
define internal fastcc range(i32 -2147483648, 1) i32 @cbs_h265_read_filler(ptr noundef %0, ptr noundef nonnull %1, ptr noundef captures(none) %2) unnamed_addr #0 {
  %4 = alloca i32, align 4
  %5 = alloca i32, align 4
  %6 = alloca i32, align 4
  tail call void @ff_cbs_trace_header(ptr noundef %0, ptr noundef nonnull @.str.218) #11
  %7 = tail call fastcc i32 @cbs_h265_read_nal_unit_header(ptr noundef %0, ptr noundef %1, ptr noundef %2, i32 noundef 38)
  %8 = icmp slt i32 %7, 0
  br i1 %8, label %cbs_h265_read_rbsp_trailing_bits.exit, label %.preheader

.preheader:                                       ; preds = %3
  %9 = getelementptr i8, ptr %1, i64 16
  %.val30 = load ptr, ptr %1, align 8, !tbaa !56
  %.val2331 = load i32, ptr %9, align 8, !tbaa !60
  %10 = lshr i32 %.val2331, 3
  %11 = zext nneg i32 %10 to i64
  %12 = getelementptr inbounds nuw i8, ptr %.val30, i64 %11
  %13 = load i32, ptr %12, align 1, !tbaa !25
  %14 = tail call i32 @llvm.bswap.i32(i32 %13)
  %15 = and i32 %.val2331, 7
  %16 = shl i32 %14, %15
  %17 = icmp ugt i32 %16, -16777217
  br i1 %17, label %.lr.ph, label %._crit_edge

.lr.ph:                                           ; preds = %.preheader
  %18 = getelementptr inbounds nuw i8, ptr %2, i64 4
  br label %19

19:                                               ; preds = %.lr.ph, %22
  call void @llvm.lifetime.start.p0(i64 4, ptr nonnull %6) #11
  %20 = call i32 @ff_cbs_read_unsigned(ptr noundef %0, ptr noundef nonnull %1, i32 noundef 8, ptr noundef nonnull @.str.210, ptr noundef null, ptr noundef nonnull %6, i32 noundef 255, i32 noundef 255) #11
  %21 = icmp sgt i32 %20, -1
  call void @llvm.lifetime.end.p0(i64 4, ptr nonnull %6) #11
  br i1 %21, label %22, label %cbs_h265_read_rbsp_trailing_bits.exit

22:                                               ; preds = %19
  %23 = load i32, ptr %18, align 4, !tbaa !437
  %24 = add i32 %23, 1
  store i32 %24, ptr %18, align 4, !tbaa !437
  %.val = load ptr, ptr %1, align 8, !tbaa !56
  %.val23 = load i32, ptr %9, align 8, !tbaa !60
  %25 = lshr i32 %.val23, 3
  %26 = zext nneg i32 %25 to i64
  %27 = getelementptr inbounds nuw i8, ptr %.val, i64 %26
  %28 = load i32, ptr %27, align 1, !tbaa !25
  %29 = call i32 @llvm.bswap.i32(i32 %28)
  %30 = and i32 %.val23, 7
  %31 = shl i32 %29, %30
  %32 = icmp ugt i32 %31, -16777217
  br i1 %32, label %19, label %._crit_edge, !llvm.loop !971

._crit_edge:                                      ; preds = %22, %.preheader
  call void @llvm.lifetime.start.p0(i64 4, ptr nonnull %4) #11
  %33 = call i32 @ff_cbs_read_unsigned(ptr noundef %0, ptr noundef nonnull %1, i32 noundef 1, ptr noundef nonnull @.str.112, ptr noundef null, ptr noundef nonnull %4, i32 noundef 1, i32 noundef 1) #11
  %34 = icmp sgt i32 %33, -1
  call void @llvm.lifetime.end.p0(i64 4, ptr nonnull %4) #11
  br i1 %34, label %.preheader.i, label %cbs_h265_read_rbsp_trailing_bits.exit

.preheader.i:                                     ; preds = %._crit_edge, %36
  %.val.i = load i32, ptr %9, align 8, !tbaa !60
  %35 = and i32 %.val.i, 7
  %.not.i = icmp eq i32 %35, 0
  br i1 %.not.i, label %cbs_h265_read_rbsp_trailing_bits.exit, label %36

36:                                               ; preds = %.preheader.i
  call void @llvm.lifetime.start.p0(i64 4, ptr nonnull %5) #11
  %37 = call i32 @ff_cbs_read_unsigned(ptr noundef %0, ptr noundef nonnull %1, i32 noundef 1, ptr noundef nonnull @.str.113, ptr noundef null, ptr noundef nonnull %5, i32 noundef 0, i32 noundef 0) #11
  %38 = icmp sgt i32 %37, -1
  call void @llvm.lifetime.end.p0(i64 4, ptr nonnull %5) #11
  br i1 %38, label %.preheader.i, label %cbs_h265_read_rbsp_trailing_bits.exit, !llvm.loop !337

cbs_h265_read_rbsp_trailing_bits.exit:            ; preds = %19, %.preheader.i, %36, %._crit_edge, %3
  %.019 = phi i32 [ %7, %3 ], [ %33, %._crit_edge ], [ %37, %36 ], [ 0, %.preheader.i ], [ %20, %19 ]
  ret i32 %.019
}